; Function Attrs: nounwind uwtable
define internal fastcc void @dissect_fcfcs_rpln(ptr noundef %0, ptr noundef %1, i32 noundef range(i32 0, 2) %2) unnamed_addr #0 {
  %4 = icmp ne ptr %1, null
  %5 = icmp ne i32 %2, 0
  %or.cond = and i1 %4, %5
  br i1 %or.cond, label %6, label %15

6:                                                ; preds = %3
  %7 = tail call zeroext i8 @tvb_get_guint8(ptr noundef %0, i32 noundef 16) #4
  %8 = zext i8 %7 to i32
  %9 = load i32, ptr @hf_fcs_platformname_len, align 4
  %10 = tail call ptr @proto_tree_add_uint(ptr noundef nonnull %1, i32 noundef %9, ptr noundef %0, i32 noundef 16, i32 noundef 1, i32 noundef %8) #4
  %11 = load i32, ptr @hf_fcs_platformname, align 4
  %12 = tail call ptr @proto_tree_add_item(ptr noundef nonnull %1, i32 noundef %11, ptr noundef %0, i32 noundef 17, i32 noundef %8, i32 noundef 0) #4
  %13 = load i32, ptr @hf_fcs_platformnname, align 4
  %14 = tail call ptr @proto_tree_add_item(ptr noundef nonnull %1, i32 noundef %13, ptr noundef %0, i32 noundef 272, i32 noundef 8, i32 noundef 0) #4
  br label %15

15:                                               ; preds = %6, %3
  ret void
}